target datalayout = "e-m:e-p270:32:32-p271:32:32-p272:64:64-i64:64-i128:128-f80:128-n8:16:32:64-S128"
target triple = "x86_64-unknown-linux-gnu"

%"class.std::__cxx11::basic_string" = type { %"struct.std::__cxx11::basic_string<char>::_Alloc_hider", i64, %union.anon }
%"struct.std::__cxx11::basic_string<char>::_Alloc_hider" = type { ptr }
%union.anon = type { i64, [8 x i8] }
%"class.google::protobuf::compiler::java::ClassNameResolver" = type { %"struct.google::protobuf::compiler::java::Options", %"class.absl::lts_20230802::flat_hash_map" }
%"struct.google::protobuf::compiler::java::Options" = type <{ i8, i8, i8, i8, i8, i8, [2 x i8], %"class.std::__cxx11::basic_string", %"class.std::__cxx11::basic_string", i8, [7 x i8] }>
%"class.absl::lts_20230802::flat_hash_map" = type { %"class.absl::lts_20230802::container_internal::raw_hash_map" }
%"class.absl::lts_20230802::container_internal::raw_hash_map" = type { %"class.absl::lts_20230802::container_internal::raw_hash_set" }
%"class.absl::lts_20230802::container_internal::raw_hash_set" = type { %"class.absl::lts_20230802::container_internal::CompressedTuple" }
%"class.absl::lts_20230802::container_internal::CompressedTuple" = type { %"struct.absl::lts_20230802::container_internal::internal_compressed_tuple::CompressedTupleImpl" }
%"struct.absl::lts_20230802::container_internal::internal_compressed_tuple::CompressedTupleImpl" = type { %"struct.absl::lts_20230802::container_internal::internal_compressed_tuple::Storage" }
%"struct.absl::lts_20230802::container_internal::internal_compressed_tuple::Storage" = type { %"class.absl::lts_20230802::container_internal::CommonFields" }
%"class.absl::lts_20230802::container_internal::CommonFields" = type { ptr, ptr, i64, %"class.absl::lts_20230802::container_internal::CompressedTuple.0" }
%"class.absl::lts_20230802::container_internal::CompressedTuple.0" = type { %"struct.absl::lts_20230802::container_internal::internal_compressed_tuple::CompressedTupleImpl.1" }
%"struct.absl::lts_20230802::container_internal::internal_compressed_tuple::CompressedTupleImpl.1" = type { %"struct.absl::lts_20230802::container_internal::internal_compressed_tuple::Storage.2" }
%"struct.absl::lts_20230802::container_internal::internal_compressed_tuple::Storage.2" = type { i64 }

; Function Attrs: mustprogress nounwind uwtable
define linkonce_odr hidden void @_ZN6google8protobuf8compiler4java7OptionsD2Ev(ptr noundef nonnull align 8 dereferenceable(73) %this) unnamed_addr #5 comdat align 2 {
entry:
  %this.addr = alloca ptr, align 8
  store ptr %this, ptr %this.addr, align 8
  %this1 = load ptr, ptr %this.addr, align 8
  %output_list_file = getelementptr inbounds %"struct.google::protobuf::compiler::java::Options", ptr %this1, i32 0, i32 8
  call void @_ZNSt7__cxx1112basic_stringIcSt11char_traitsIcESaIcEED1Ev(ptr noundef nonnull align 8 dereferenceable(32) %output_list_file) #3
  %annotation_list_file = getelementptr inbounds %"struct.google::protobuf::compiler::java::Options", ptr %this1, i32 0, i32 7
  call void @_ZNSt7__cxx1112basic_stringIcSt11char_traitsIcESaIcEED1Ev(ptr noundef nonnull align 8 dereferenceable(32) %annotation_list_file) #3
  ret void
}

; Function Attrs: mustprogress uwtable
define linkonce_odr hidden void @_ZN6google8protobuf8compiler4java7OptionsC2ERKS3_(ptr noundef nonnull align 8 dereferenceable(73) %this, ptr noundef nonnull align 8 dereferenceable(73) %0) unnamed_addr #4 comdat align 2 personality ptr @__gxx_personality_v0 {
entry:
  %this.addr = alloca ptr, align 8
  %.addr = alloca ptr, align 8
  %exn.slot = alloca ptr, align 8
  %ehselector.slot = alloca i32, align 4
  store ptr %this, ptr %this.addr, align 8
  store ptr %0, ptr %.addr, align 8
  %this1 = load ptr, ptr %this.addr, align 8
  %generate_immutable_code = getelementptr inbounds %"struct.google::protobuf::compiler::java::Options", ptr %this1, i32 0, i32 0
  %1 = load ptr, ptr %.addr, align 8
  %generate_immutable_code2 = getelementptr inbounds %"struct.google::protobuf::compiler::java::Options", ptr %1, i32 0, i32 0
  call void @llvm.memcpy.p0.p0.i64(ptr align 8 %generate_immutable_code, ptr align 8 %generate_immutable_code2, i64 6, i1 false)
  %annotation_list_file = getelementptr inbounds %"struct.google::protobuf::compiler::java::Options", ptr %this1, i32 0, i32 7
  %2 = load ptr, ptr %.addr, align 8
  %annotation_list_file3 = getelementptr inbounds %"struct.google::protobuf::compiler::java::Options", ptr %2, i32 0, i32 7
  call void @_ZNSt7__cxx1112basic_stringIcSt11char_traitsIcESaIcEEC1ERKS4_(ptr noundef nonnull align 8 dereferenceable(32) %annotation_list_file, ptr noundef nonnull align 8 dereferenceable(32) %annotation_list_file3)
  %output_list_file = getelementptr inbounds %"struct.google::protobuf::compiler::java::Options", ptr %this1, i32 0, i32 8
  %3 = load ptr, ptr %.addr, align 8
  %output_list_file4 = getelementptr inbounds %"struct.google::protobuf::compiler::java::Options", ptr %3, i32 0, i32 8
  invoke void @_ZNSt7__cxx1112basic_stringIcSt11char_traitsIcESaIcEEC1ERKS4_(ptr noundef nonnull align 8 dereferenceable(32) %output_list_file, ptr noundef nonnull align 8 dereferenceable(32) %output_list_file4)
          to label %invoke.cont unwind label %lpad

invoke.cont:                                      ; preds = %entry
  %strip_nonfunctional_codegen = getelementptr inbounds %"struct.google::protobuf::compiler::java::Options", ptr %this1, i32 0, i32 9
  %4 = load ptr, ptr %.addr, align 8
  %strip_nonfunctional_codegen5 = getelementptr inbounds %"struct.google::protobuf::compiler::java::Options", ptr %4, i32 0, i32 9
  %5 = load i8, ptr %strip_nonfunctional_codegen5, align 8
  %tobool = trunc i8 %5 to i1
  %frombool = zext i1 %tobool to i8
  store i8 %frombool, ptr %strip_nonfunctional_codegen, align 8
  ret void

lpad:                                             ; preds = %entry
  %6 = landingpad { ptr, i32 }
          cleanup
  %7 = extractvalue { ptr, i32 } %6, 0
  store ptr %7, ptr %exn.slot, align 8
  %8 = extractvalue { ptr, i32 } %6, 1
  store i32 %8, ptr %ehselector.slot, align 4
  call void @_ZNSt7__cxx1112basic_stringIcSt11char_traitsIcESaIcEED1Ev(ptr noundef nonnull align 8 dereferenceable(32) %annotation_list_file) #3
  br label %eh.resume

eh.resume:                                        ; preds = %lpad
  %exn = load ptr, ptr %exn.slot, align 8
  %sel = load i32, ptr %ehselector.slot, align 4
  %lpad.val = insertvalue { ptr, i32 } poison, ptr %exn, 0
  %lpad.val6 = insertvalue { ptr, i32 } %lpad.val, i32 %sel, 1
  resume { ptr, i32 } %lpad.val6
}

; Function Attrs: mustprogress uwtable
define hidden void @_ZN6google8protobuf8compiler4java17ClassNameResolver12GetClassNameB5cxx11EPKNS0_14FileDescriptorEbb(ptr noalias sret(%"class.std::__cxx11::basic_string") align 8 %agg.result, ptr noundef nonnull align 8 dereferenceable(112) %this, ptr noundef %descriptor, i1 noundef zeroext %immutable, i1 noundef zeroext %kotlin) #4 align 2 personality ptr @__gxx_personality_v0 {
entry:
  %result.ptr = alloca ptr, align 8
  %this.addr = alloca ptr, align 8
  %descriptor.addr = alloca ptr, align 8
  %immutable.addr = alloca i8, align 1
  %kotlin.addr = alloca i8, align 1
  %nrvo = alloca i1, align 1
  %agg.tmp = alloca %"struct.google::protobuf::compiler::java::Options", align 8
  %exn.slot = alloca ptr, align 8
  %ehselector.slot = alloca i32, align 4
  %ref.tmp = alloca %"class.std::__cxx11::basic_string", align 8
  store ptr %agg.result, ptr %result.ptr, align 8
  store ptr %this, ptr %this.addr, align 8
  store ptr %descriptor, ptr %descriptor.addr, align 8
  %frombool = zext i1 %immutable to i8
  store i8 %frombool, ptr %immutable.addr, align 1
  %frombool1 = zext i1 %kotlin to i8
  store i8 %frombool1, ptr %kotlin.addr, align 1
  %this2 = load ptr, ptr %this.addr, align 8
  store i1 false, ptr %nrvo, align 1
  %0 = load ptr, ptr %descriptor.addr, align 8
  %1 = load i8, ptr %immutable.addr, align 1
  %tobool = trunc i8 %1 to i1
  %options_ = getelementptr inbounds %"class.google::protobuf::compiler::java::ClassNameResolver", ptr %this2, i32 0, i32 0
  call void @_ZN6google8protobuf8compiler4java7OptionsC2ERKS3_(ptr noundef nonnull align 8 dereferenceable(73) %agg.tmp, ptr noundef nonnull align 8 dereferenceable(73) %options_)
  invoke void @_ZN6google8protobuf8compiler4java15FileJavaPackageB5cxx11EPKNS0_14FileDescriptorEbNS2_7OptionsE(ptr sret(%"class.std::__cxx11::basic_string") align 8 %agg.result, ptr noundef %0, i1 noundef zeroext %tobool, ptr noundef %agg.tmp)
          to label %invoke.cont unwind label %lpad

invoke.cont:                                      ; preds = %entry
  call void @_ZN6google8protobuf8compiler4java7OptionsD2Ev(ptr noundef nonnull align 8 dereferenceable(73) %agg.tmp) #3
  %call = call noundef zeroext i1 @_ZNKSt7__cxx1112basic_stringIcSt11char_traitsIcESaIcEE5emptyEv(ptr noundef nonnull align 8 dereferenceable(32) %agg.result) #3
  br i1 %call, label %if.end, label %if.then

if.then:                                          ; preds = %invoke.cont
  %call5 = invoke noundef nonnull align 8 dereferenceable(32) ptr @_ZNSt7__cxx1112basic_stringIcSt11char_traitsIcESaIcEEpLEc(ptr noundef nonnull align 8 dereferenceable(32) %agg.result, i8 noundef signext 46)
          to label %invoke.cont4 unwind label %lpad3

invoke.cont4:                                     ; preds = %if.then
  br label %if.end

lpad:                                             ; preds = %entry
  %2 = landingpad { ptr, i32 }
          cleanup
  %3 = extractvalue { ptr, i32 } %2, 0
  store ptr %3, ptr %exn.slot, align 8
  %4 = extractvalue { ptr, i32 } %2, 1
  store i32 %4, ptr %ehselector.slot, align 4
  call void @_ZN6google8protobuf8compiler4java7OptionsD2Ev(ptr noundef nonnull align 8 dereferenceable(73) %agg.tmp) #3
  br label %eh.resume

lpad3:                                            ; preds = %if.end, %if.then
  %5 = landingpad { ptr, i32 }
          cleanup
  %6 = extractvalue { ptr, i32 } %5, 0
  store ptr %6, ptr %exn.slot, align 8
  %7 = extractvalue { ptr, i32 } %5, 1
  store i32 %7, ptr %ehselector.slot, align 4
  br label %ehcleanup

if.end:                                           ; preds = %invoke.cont4, %invoke.cont
  %8 = load ptr, ptr %descriptor.addr, align 8
  %9 = load i8, ptr %immutable.addr, align 1
  %tobool6 = trunc i8 %9 to i1
  %10 = load i8, ptr %kotlin.addr, align 1
  %tobool7 = trunc i8 %10 to i1
  invoke void @_ZN6google8protobuf8compiler4java17ClassNameResolver16GetFileClassNameB5cxx11EPKNS0_14FileDescriptorEbb(ptr sret(%"class.std::__cxx11::basic_string") align 8 %ref.tmp, ptr noundef nonnull align 8 dereferenceable(112) %this2, ptr noundef %8, i1 noundef zeroext %tobool6, i1 noundef zeroext %tobool7)
          to label %invoke.cont8 unwind label %lpad3

invoke.cont8:                                     ; preds = %if.end
  %call11 = invoke noundef nonnull align 8 dereferenceable(32) ptr @_ZNSt7__cxx1112basic_stringIcSt11char_traitsIcESaIcEEpLERKS4_(ptr noundef nonnull align 8 dereferenceable(32) %agg.result, ptr noundef nonnull align 8 dereferenceable(32) %ref.tmp)
          to label %invoke.cont10 unwind label %lpad9

invoke.cont10:                                    ; preds = %invoke.cont8
  call void @_ZNSt7__cxx1112basic_stringIcSt11char_traitsIcESaIcEED1Ev(ptr noundef nonnull align 8 dereferenceable(32) %ref.tmp) #3
  store i1 true, ptr %nrvo, align 1
  %nrvo.val = load i1, ptr %nrvo, align 1
  br i1 %nrvo.val, label %nrvo.skipdtor, label %nrvo.unused

lpad9:                                            ; preds = %invoke.cont8
  %11 = landingpad { ptr, i32 }
          cleanup
  %12 = extractvalue { ptr, i32 } %11, 0
  store ptr %12, ptr %exn.slot, align 8
  %13 = extractvalue { ptr, i32 } %11, 1
  store i32 %13, ptr %ehselector.slot, align 4
  call void @_ZNSt7__cxx1112basic_stringIcSt11char_traitsIcESaIcEED1Ev(ptr noundef nonnull align 8 dereferenceable(32) %ref.tmp) #3
  br label %ehcleanup

nrvo.unused:                                      ; preds = %invoke.cont10
  call void @_ZNSt7__cxx1112basic_stringIcSt11char_traitsIcESaIcEED1Ev(ptr noundef nonnull align 8 dereferenceable(32) %agg.result) #3
  br label %nrvo.skipdtor

nrvo.skipdtor:                                    ; preds = %nrvo.unused, %invoke.cont10
  ret void

ehcleanup:                                        ; preds = %lpad9, %lpad3
  call void @_ZNSt7__cxx1112basic_stringIcSt11char_traitsIcESaIcEED1Ev(ptr noundef nonnull align 8 dereferenceable(32) %agg.result) #3
  br label %eh.resume

eh.resume:                                        ; preds = %ehcleanup, %lpad
  %exn = load ptr, ptr %exn.slot, align 8
  %sel = load i32, ptr %ehselector.slot, align 4
  %lpad.val = insertvalue { ptr, i32 } poison, ptr %exn, 0
  %lpad.val12 = insertvalue { ptr, i32 } %lpad.val, i32 %sel, 1
  resume { ptr, i32 } %lpad.val12
}