; Function Attrs: mustprogress uwtable
define hidden void @_ZN6google8protobuf8compiler4java17ClassNameResolver12GetClassNameB5cxx11EPKNS0_14FileDescriptorEbb(ptr noalias sret(%"class.std::__cxx11::basic_string") align 8 %agg.result, ptr noundef nonnull align 8 dereferenceable(112) %this, ptr noundef %descriptor, i1 noundef zeroext %immutable, i1 noundef zeroext %kotlin) local_unnamed_addr #3 align 2 personality ptr @__gxx_personality_v0 {
entry:
  %agg.tmp = alloca %"struct.google::protobuf::compiler::java::Options", align 8
  %ref.tmp = alloca %"class.std::__cxx11::basic_string", align 8
  call void @llvm.memcpy.p0.p0.i64(ptr noundef nonnull align 8 dereferenceable(73) %agg.tmp, ptr noundef nonnull align 8 dereferenceable(73) %this, i64 6, i1 false)
  %annotation_list_file.i = getelementptr inbounds nuw i8, ptr %agg.tmp, i64 8
  %annotation_list_file3.i = getelementptr inbounds nuw i8, ptr %this, i64 8
  call void @_ZNSt7__cxx1112basic_stringIcSt11char_traitsIcESaIcEEC1ERKS4_(ptr noundef nonnull align 8 dereferenceable(32) %annotation_list_file.i, ptr noundef nonnull align 8 dereferenceable(32) %annotation_list_file3.i)
  %output_list_file.i = getelementptr inbounds nuw i8, ptr %agg.tmp, i64 40
  %output_list_file4.i = getelementptr inbounds nuw i8, ptr %this, i64 40
  invoke void @_ZNSt7__cxx1112basic_stringIcSt11char_traitsIcESaIcEEC1ERKS4_(ptr noundef nonnull align 8 dereferenceable(32) %output_list_file.i, ptr noundef nonnull align 8 dereferenceable(32) %output_list_file4.i)
          to label %_ZN6google8protobuf8compiler4java7OptionsC2ERKS3_.exit unwind label %lpad.i

common.resume:                                    ; preds = %lpad3, %lpad9, %lpad, %lpad.i
  %annotation_list_file.i.sink = phi ptr [ %annotation_list_file.i, %lpad ], [ %annotation_list_file.i, %lpad.i ], [ %agg.result, %lpad9 ], [ %agg.result, %lpad3 ]
  %common.resume.op = phi { ptr, i32 } [ %2, %lpad ], [ %0, %lpad.i ], [ %4, %lpad9 ], [ %3, %lpad3 ]
  call void @_ZNSt7__cxx1112basic_stringIcSt11char_traitsIcESaIcEED1Ev(ptr noundef nonnull align 8 dereferenceable(32) %annotation_list_file.i.sink) #18
  resume { ptr, i32 } %common.resume.op

lpad.i:                                           ; preds = %entry
  %0 = landingpad { ptr, i32 }
          cleanup
  br label %common.resume

_ZN6google8protobuf8compiler4java7OptionsC2ERKS3_.exit: ; preds = %entry
  %strip_nonfunctional_codegen.i = getelementptr inbounds nuw i8, ptr %agg.tmp, i64 72
  %strip_nonfunctional_codegen5.i = getelementptr inbounds nuw i8, ptr %this, i64 72
  %1 = load i8, ptr %strip_nonfunctional_codegen5.i, align 8
  %frombool.i = and i8 %1, 1
  store i8 %frombool.i, ptr %strip_nonfunctional_codegen.i, align 8
  invoke void @_ZN6google8protobuf8compiler4java15FileJavaPackageB5cxx11EPKNS0_14FileDescriptorEbNS2_7OptionsE(ptr sret(%"class.std::__cxx11::basic_string") align 8 %agg.result, ptr noundef %descriptor, i1 noundef zeroext %immutable, ptr noundef nonnull %agg.tmp)
          to label %invoke.cont unwind label %lpad

invoke.cont:                                      ; preds = %_ZN6google8protobuf8compiler4java7OptionsC2ERKS3_.exit
  call void @_ZNSt7__cxx1112basic_stringIcSt11char_traitsIcESaIcEED1Ev(ptr noundef nonnull align 8 dereferenceable(32) %output_list_file.i) #18
  call void @_ZNSt7__cxx1112basic_stringIcSt11char_traitsIcESaIcEED1Ev(ptr noundef nonnull align 8 dereferenceable(32) %annotation_list_file.i) #18
  %call = call noundef zeroext i1 @_ZNKSt7__cxx1112basic_stringIcSt11char_traitsIcESaIcEE5emptyEv(ptr noundef nonnull align 8 dereferenceable(32) %agg.result) #18
  br i1 %call, label %if.end, label %if.then

if.then:                                          ; preds = %invoke.cont
  %call5 = invoke noundef nonnull align 8 dereferenceable(32) ptr @_ZNSt7__cxx1112basic_stringIcSt11char_traitsIcESaIcEEpLEc(ptr noundef nonnull align 8 dereferenceable(32) %agg.result, i8 noundef signext 46)
          to label %if.end unwind label %lpad3

lpad:                                             ; preds = %_ZN6google8protobuf8compiler4java7OptionsC2ERKS3_.exit
  %2 = landingpad { ptr, i32 }
          cleanup
  call void @_ZNSt7__cxx1112basic_stringIcSt11char_traitsIcESaIcEED1Ev(ptr noundef nonnull align 8 dereferenceable(32) %output_list_file.i) #18
  br label %common.resume

lpad3:                                            ; preds = %if.end, %if.then
  %3 = landingpad { ptr, i32 }
          cleanup
  br label %common.resume

if.end:                                           ; preds = %if.then, %invoke.cont
  invoke void @_ZN6google8protobuf8compiler4java17ClassNameResolver16GetFileClassNameB5cxx11EPKNS0_14FileDescriptorEbb(ptr nonnull sret(%"class.std::__cxx11::basic_string") align 8 %ref.tmp, ptr noundef nonnull align 8 dereferenceable(112) %this, ptr noundef %descriptor, i1 noundef zeroext %immutable, i1 noundef zeroext %kotlin)
          to label %invoke.cont8 unwind label %lpad3

invoke.cont8:                                     ; preds = %if.end
  %call11 = invoke noundef nonnull align 8 dereferenceable(32) ptr @_ZNSt7__cxx1112basic_stringIcSt11char_traitsIcESaIcEEpLERKS4_(ptr noundef nonnull align 8 dereferenceable(32) %agg.result, ptr noundef nonnull align 8 dereferenceable(32) %ref.tmp)
          to label %invoke.cont10 unwind label %lpad9

invoke.cont10:                                    ; preds = %invoke.cont8
  call void @_ZNSt7__cxx1112basic_stringIcSt11char_traitsIcESaIcEED1Ev(ptr noundef nonnull align 8 dereferenceable(32) %ref.tmp) #18
  ret void

lpad9:                                            ; preds = %invoke.cont8
  %4 = landingpad { ptr, i32 }
          cleanup
  call void @_ZNSt7__cxx1112basic_stringIcSt11char_traitsIcESaIcEED1Ev(ptr noundef nonnull align 8 dereferenceable(32) %ref.tmp) #18
  br label %common.resume
}